target datalayout = "e-m:e-p270:32:32-p271:32:32-p272:64:64-i64:64-i128:128-f80:128-n8:16:32:64-S128"
target triple = "x86_64-pc-linux-gnu"

%"class.std::unique_ptr" = type { %"struct.std::__uniq_ptr_data" }
%"struct.std::__uniq_ptr_data" = type { %"class.std::__uniq_ptr_impl" }
%"class.std::__uniq_ptr_impl" = type { %"class.std::tuple" }
%"class.std::tuple" = type { %"struct.std::_Tuple_impl" }
%"struct.std::_Tuple_impl" = type { %"struct.std::_Head_base.1" }
%"struct.std::_Head_base.1" = type { ptr }
%"class.std::unique_ptr.20" = type { %"struct.std::__uniq_ptr_data.21" }
%"struct.std::__uniq_ptr_data.21" = type { %"class.std::__uniq_ptr_impl.22" }
%"class.std::__uniq_ptr_impl.22" = type { %"class.std::tuple.23" }
%"class.std::tuple.23" = type { %"struct.std::_Tuple_impl.24" }
%"struct.std::_Tuple_impl.24" = type { %"struct.std::_Head_base.25" }
%"struct.std::_Head_base.25" = type { ptr }
%"class.std::unique_ptr.36" = type { %"struct.std::__uniq_ptr_data.37" }
%"struct.std::__uniq_ptr_data.37" = type { %"class.std::__uniq_ptr_impl.38" }
%"class.std::__uniq_ptr_impl.38" = type { %"class.std::tuple.39" }
%"class.std::tuple.39" = type { %"struct.std::_Tuple_impl.40" }
%"struct.std::_Tuple_impl.40" = type { %"struct.std::_Head_base.41" }
%"struct.std::_Head_base.41" = type { ptr }
%"class.std::unique_ptr.42" = type { %"struct.std::__uniq_ptr_data.43" }
%"struct.std::__uniq_ptr_data.43" = type { %"class.std::__uniq_ptr_impl.44" }
%"class.std::__uniq_ptr_impl.44" = type { %"class.std::tuple.45" }
%"class.std::tuple.45" = type { %"struct.std::_Tuple_impl.46" }
%"struct.std::_Tuple_impl.46" = type { %"struct.std::_Head_base.47" }
%"struct.std::_Head_base.47" = type { ptr }
%"class.std::unique_ptr.48" = type { %"struct.std::__uniq_ptr_data.49" }
%"struct.std::__uniq_ptr_data.49" = type { %"class.std::__uniq_ptr_impl.50" }
%"class.std::__uniq_ptr_impl.50" = type { %"class.std::tuple.51" }
%"class.std::tuple.51" = type { %"struct.std::_Tuple_impl.52" }
%"struct.std::_Tuple_impl.52" = type { %"struct.std::_Head_base.53" }
%"struct.std::_Head_base.53" = type { ptr }
%"class.tbb::detail::r1::threading_control_impl" = type { %"class.std::unique_ptr", %"class.std::unique_ptr.20", %"class.std::unique_ptr.36", %"class.std::unique_ptr.42", %"class.std::unique_ptr.48" }
%"class.tbb::detail::r1::threading_control_client" = type { ptr, ptr }

; Function Attrs: mustprogress nounwind sspstrong uwtable
define linkonce_odr noundef nonnull align 8 dereferenceable(8) ptr @_ZNSt10_Head_baseILm0EPN3tbb6detail2r117thread_dispatcherELb0EE7_M_headERKS5_(ptr noundef nonnull align 8 dereferenceable(8) %0) #3 comdat align 2 {
  %2 = alloca ptr, align 8
  store ptr %0, ptr %2, align 8, !tbaa !175
  %3 = load ptr, ptr %2, align 8, !tbaa !175
  %4 = getelementptr inbounds nuw %"struct.std::_Head_base.25", ptr %3, i32 0, i32 0
  ret ptr %4
}

; Function Attrs: mustprogress nounwind sspstrong uwtable
define linkonce_odr noundef nonnull align 8 dereferenceable(8) ptr @_ZNSt10_Head_baseILm0EPN3tbb6detail2r114permit_managerELb0EE7_M_headERKS5_(ptr noundef nonnull align 8 dereferenceable(8) %0) #3 comdat align 2 {
  %2 = alloca ptr, align 8
  store ptr %0, ptr %2, align 8, !tbaa !161
  %3 = load ptr, ptr %2, align 8, !tbaa !161
  %4 = getelementptr inbounds nuw %"struct.std::_Head_base.1", ptr %3, i32 0, i32 0
  ret ptr %4
}

; Function Attrs: mustprogress nounwind sspstrong uwtable
define linkonce_odr noundef nonnull align 8 dereferenceable(8) ptr @_ZNSt11_Tuple_implILm0EJPN3tbb6detail2r117thread_dispatcherENS2_21cache_aligned_deleterEEE7_M_headERKS6_(ptr noundef nonnull align 8 dereferenceable(8) %0) #3 comdat align 2 {
  %2 = alloca ptr, align 8
  store ptr %0, ptr %2, align 8, !tbaa !173
  %3 = load ptr, ptr %2, align 8, !tbaa !173
  %4 = call noundef nonnull align 8 dereferenceable(8) ptr @_ZNSt10_Head_baseILm0EPN3tbb6detail2r117thread_dispatcherELb0EE7_M_headERKS5_(ptr noundef nonnull align 8 dereferenceable(8) %3) #7
  ret ptr %4
}

; Function Attrs: mustprogress nounwind sspstrong uwtable
define linkonce_odr noundef nonnull align 8 dereferenceable(8) ptr @_ZNSt11_Tuple_implILm0EJPN3tbb6detail2r114permit_managerENS2_21cache_aligned_deleterEEE7_M_headERKS6_(ptr noundef nonnull align 8 dereferenceable(8) %0) #3 comdat align 2 {
  %2 = alloca ptr, align 8
  store ptr %0, ptr %2, align 8, !tbaa !157
  %3 = load ptr, ptr %2, align 8, !tbaa !157
  %4 = call noundef nonnull align 8 dereferenceable(8) ptr @_ZNSt10_Head_baseILm0EPN3tbb6detail2r114permit_managerELb0EE7_M_headERKS5_(ptr noundef nonnull align 8 dereferenceable(8) %3) #7
  ret ptr %4
}

; Function Attrs: mustprogress nounwind sspstrong uwtable
define linkonce_odr noundef nonnull align 8 dereferenceable(8) ptr @_ZSt12__get_helperILm0EPN3tbb6detail2r117thread_dispatcherEJNS2_21cache_aligned_deleterEEERKT0_RKSt11_Tuple_implIXT_EJS6_DpT1_EE(ptr noundef nonnull align 8 dereferenceable(8) %0) #3 comdat {
  %2 = alloca ptr, align 8
  store ptr %0, ptr %2, align 8, !tbaa !173
  %3 = load ptr, ptr %2, align 8, !tbaa !173
  %4 = call noundef nonnull align 8 dereferenceable(8) ptr @_ZNSt11_Tuple_implILm0EJPN3tbb6detail2r117thread_dispatcherENS2_21cache_aligned_deleterEEE7_M_headERKS6_(ptr noundef nonnull align 8 dereferenceable(8) %3) #7
  ret ptr %4
}

; Function Attrs: mustprogress nounwind sspstrong uwtable
define linkonce_odr noundef nonnull align 8 dereferenceable(8) ptr @_ZSt12__get_helperILm0EPN3tbb6detail2r114permit_managerEJNS2_21cache_aligned_deleterEEERKT0_RKSt11_Tuple_implIXT_EJS6_DpT1_EE(ptr noundef nonnull align 8 dereferenceable(8) %0) #3 comdat {
  %2 = alloca ptr, align 8
  store ptr %0, ptr %2, align 8, !tbaa !157
  %3 = load ptr, ptr %2, align 8, !tbaa !157
  %4 = call noundef nonnull align 8 dereferenceable(8) ptr @_ZNSt11_Tuple_implILm0EJPN3tbb6detail2r114permit_managerENS2_21cache_aligned_deleterEEE7_M_headERKS6_(ptr noundef nonnull align 8 dereferenceable(8) %3) #7
  ret ptr %4
}

; Function Attrs: mustprogress nounwind sspstrong uwtable
define linkonce_odr noundef nonnull align 8 dereferenceable(8) ptr @_ZSt3getILm0EJPN3tbb6detail2r117thread_dispatcherENS2_21cache_aligned_deleterEEERKNSt13tuple_elementIXT_ESt5tupleIJDpT0_EEE4typeERKSA_(ptr noundef nonnull align 8 dereferenceable(8) %0) #3 comdat {
  %2 = alloca ptr, align 8
  store ptr %0, ptr %2, align 8, !tbaa !171
  %3 = load ptr, ptr %2, align 8, !tbaa !171
  %4 = call noundef nonnull align 8 dereferenceable(8) ptr @_ZSt12__get_helperILm0EPN3tbb6detail2r117thread_dispatcherEJNS2_21cache_aligned_deleterEEERKT0_RKSt11_Tuple_implIXT_EJS6_DpT1_EE(ptr noundef nonnull align 8 dereferenceable(8) %3) #7
  ret ptr %4
}

; Function Attrs: mustprogress nounwind sspstrong uwtable
define linkonce_odr noundef nonnull align 8 dereferenceable(8) ptr @_ZSt3getILm0EJPN3tbb6detail2r114permit_managerENS2_21cache_aligned_deleterEEERKNSt13tuple_elementIXT_ESt5tupleIJDpT0_EEE4typeERKSA_(ptr noundef nonnull align 8 dereferenceable(8) %0) #3 comdat {
  %2 = alloca ptr, align 8
  store ptr %0, ptr %2, align 8, !tbaa !155
  %3 = load ptr, ptr %2, align 8, !tbaa !155
  %4 = call noundef nonnull align 8 dereferenceable(8) ptr @_ZSt12__get_helperILm0EPN3tbb6detail2r114permit_managerEJNS2_21cache_aligned_deleterEEERKT0_RKSt11_Tuple_implIXT_EJS6_DpT1_EE(ptr noundef nonnull align 8 dereferenceable(8) %3) #7
  ret ptr %4
}

; Function Attrs: mustprogress nounwind sspstrong uwtable
define linkonce_odr noundef ptr @_ZNKSt15__uniq_ptr_implIN3tbb6detail2r117thread_dispatcherENS2_21cache_aligned_deleterEE6_M_ptrEv(ptr noundef nonnull align 8 dereferenceable(8) %0) #3 comdat align 2 {
  %2 = alloca ptr, align 8
  store ptr %0, ptr %2, align 8, !tbaa !169
  %3 = load ptr, ptr %2, align 8
  %4 = getelementptr inbounds nuw %"class.std::__uniq_ptr_impl.22", ptr %3, i32 0, i32 0
  %5 = call noundef nonnull align 8 dereferenceable(8) ptr @_ZSt3getILm0EJPN3tbb6detail2r117thread_dispatcherENS2_21cache_aligned_deleterEEERKNSt13tuple_elementIXT_ESt5tupleIJDpT0_EEE4typeERKSA_(ptr noundef nonnull align 8 dereferenceable(8) %4) #7
  %6 = load ptr, ptr %5, align 8, !tbaa !56
  ret ptr %6
}

; Function Attrs: mustprogress nounwind sspstrong uwtable
define linkonce_odr noundef ptr @_ZNKSt15__uniq_ptr_implIN3tbb6detail2r114permit_managerENS2_21cache_aligned_deleterEE6_M_ptrEv(ptr noundef nonnull align 8 dereferenceable(8) %0) #3 comdat align 2 {
  %2 = alloca ptr, align 8
  store ptr %0, ptr %2, align 8, !tbaa !153
  %3 = load ptr, ptr %2, align 8
  %4 = getelementptr inbounds nuw %"class.std::__uniq_ptr_impl", ptr %3, i32 0, i32 0
  %5 = call noundef nonnull align 8 dereferenceable(8) ptr @_ZSt3getILm0EJPN3tbb6detail2r114permit_managerENS2_21cache_aligned_deleterEEERKNSt13tuple_elementIXT_ESt5tupleIJDpT0_EEE4typeERKSA_(ptr noundef nonnull align 8 dereferenceable(8) %4) #7
  %6 = load ptr, ptr %5, align 8, !tbaa !74
  ret ptr %6
}

; Function Attrs: mustprogress nounwind sspstrong uwtable
define linkonce_odr noundef ptr @_ZNKSt10unique_ptrIN3tbb6detail2r117thread_dispatcherENS2_21cache_aligned_deleterEE3getEv(ptr noundef nonnull align 8 dereferenceable(8) %0) #3 comdat align 2 {
  %2 = alloca ptr, align 8
  store ptr %0, ptr %2, align 8, !tbaa !52
  %3 = load ptr, ptr %2, align 8
  %4 = getelementptr inbounds nuw %"class.std::unique_ptr.20", ptr %3, i32 0, i32 0
  %5 = call noundef ptr @_ZNKSt15__uniq_ptr_implIN3tbb6detail2r117thread_dispatcherENS2_21cache_aligned_deleterEE6_M_ptrEv(ptr noundef nonnull align 8 dereferenceable(8) %4) #7
  ret ptr %5
}

; Function Attrs: mustprogress nounwind sspstrong uwtable
define linkonce_odr noundef ptr @_ZNKSt10unique_ptrIN3tbb6detail2r114permit_managerENS2_21cache_aligned_deleterEE3getEv(ptr noundef nonnull align 8 dereferenceable(8) %0) #3 comdat align 2 {
  %2 = alloca ptr, align 8
  store ptr %0, ptr %2, align 8, !tbaa !13
  %3 = load ptr, ptr %2, align 8
  %4 = getelementptr inbounds nuw %"class.std::unique_ptr", ptr %3, i32 0, i32 0
  %5 = call noundef ptr @_ZNKSt15__uniq_ptr_implIN3tbb6detail2r114permit_managerENS2_21cache_aligned_deleterEE6_M_ptrEv(ptr noundef nonnull align 8 dereferenceable(8) %4) #7
  ret ptr %5
}

; Function Attrs: mustprogress nounwind sspstrong uwtable
define linkonce_odr noundef ptr @_ZN3tbb6detail2r124threading_control_client28get_thread_dispatcher_clientEv(ptr noundef nonnull align 8 dereferenceable(16) %0) #3 comdat align 2 {
  %2 = alloca ptr, align 8
  store ptr %0, ptr %2, align 8, !tbaa !97
  %3 = load ptr, ptr %2, align 8
  %4 = getelementptr inbounds nuw %"class.tbb::detail::r1::threading_control_client", ptr %3, i32 0, i32 1
  %5 = load ptr, ptr %4, align 8, !tbaa !101
  ret ptr %5
}

; Function Attrs: mustprogress nounwind sspstrong uwtable
define linkonce_odr noundef ptr @_ZNKSt10unique_ptrIN3tbb6detail2r117thread_dispatcherENS2_21cache_aligned_deleterEEptEv(ptr noundef nonnull align 8 dereferenceable(8) %0) #3 comdat align 2 {
  %2 = alloca ptr, align 8
  store ptr %0, ptr %2, align 8, !tbaa !52
  %3 = load ptr, ptr %2, align 8
  %4 = call noundef ptr @_ZNKSt10unique_ptrIN3tbb6detail2r117thread_dispatcherENS2_21cache_aligned_deleterEE3getEv(ptr noundef nonnull align 8 dereferenceable(8) %3) #7
  ret ptr %4
}

; Function Attrs: mustprogress nounwind sspstrong uwtable
define linkonce_odr noundef ptr @_ZN3tbb6detail2r124threading_control_client13get_pm_clientEv(ptr noundef nonnull align 8 dereferenceable(16) %0) #3 comdat align 2 {
  %2 = alloca ptr, align 8
  store ptr %0, ptr %2, align 8, !tbaa !97
  %3 = load ptr, ptr %2, align 8
  %4 = getelementptr inbounds nuw %"class.tbb::detail::r1::threading_control_client", ptr %3, i32 0, i32 0
  %5 = load ptr, ptr %4, align 8, !tbaa !99
  ret ptr %5
}

; Function Attrs: mustprogress nounwind sspstrong uwtable
define linkonce_odr noundef ptr @_ZNKSt10unique_ptrIN3tbb6detail2r114permit_managerENS2_21cache_aligned_deleterEEptEv(ptr noundef nonnull align 8 dereferenceable(8) %0) #3 comdat align 2 {
  %2 = alloca ptr, align 8
  store ptr %0, ptr %2, align 8, !tbaa !13
  %3 = load ptr, ptr %2, align 8
  %4 = call noundef ptr @_ZNKSt10unique_ptrIN3tbb6detail2r114permit_managerENS2_21cache_aligned_deleterEE3getEv(ptr noundef nonnull align 8 dereferenceable(8) %3) #7
  ret ptr %4
}

; Function Attrs: mustprogress sspstrong uwtable
define void @_ZN3tbb6detail2r122threading_control_impl14publish_clientENS1_24threading_control_clientERNS0_2d111constraintsE(ptr noundef nonnull align 8 dereferenceable(40) %0, ptr %1, ptr %2, ptr noundef nonnull align 4 dereferenceable(16) %3) #0 align 2 {
  %5 = alloca %"class.tbb::detail::r1::threading_control_client", align 8
  %6 = alloca ptr, align 8
  %7 = alloca ptr, align 8
  %8 = getelementptr inbounds nuw { ptr, ptr }, ptr %5, i32 0, i32 0
  store ptr %1, ptr %8, align 8
  %9 = getelementptr inbounds nuw { ptr, ptr }, ptr %5, i32 0, i32 1
  store ptr %2, ptr %9, align 8
  store ptr %0, ptr %6, align 8, !tbaa !58
  store ptr %3, ptr %7, align 8, !tbaa !112
  %10 = load ptr, ptr %6, align 8
  %11 = getelementptr inbounds nuw %"class.tbb::detail::r1::threading_control_impl", ptr %10, i32 0, i32 0
  %12 = call noundef ptr @_ZNKSt10unique_ptrIN3tbb6detail2r114permit_managerENS2_21cache_aligned_deleterEEptEv(ptr noundef nonnull align 8 dereferenceable(8) %11) #7
  %13 = call noundef ptr @_ZN3tbb6detail2r124threading_control_client13get_pm_clientEv(ptr noundef nonnull align 8 dereferenceable(16) %5)
  %14 = load ptr, ptr %7, align 8, !tbaa !112
  %15 = load ptr, ptr %12, align 8, !tbaa !48
  %16 = getelementptr inbounds ptr, ptr %15, i64 3
  %17 = load ptr, ptr %16, align 8
  call void %17(ptr noundef nonnull align 8 dereferenceable(16) %12, ptr noundef %13, ptr noundef nonnull align 4 dereferenceable(16) %14)
  %18 = getelementptr inbounds nuw %"class.tbb::detail::r1::threading_control_impl", ptr %10, i32 0, i32 1
  %19 = call noundef ptr @_ZNKSt10unique_ptrIN3tbb6detail2r117thread_dispatcherENS2_21cache_aligned_deleterEEptEv(ptr noundef nonnull align 8 dereferenceable(8) %18) #7
  %20 = call noundef ptr @_ZN3tbb6detail2r124threading_control_client28get_thread_dispatcher_clientEv(ptr noundef nonnull align 8 dereferenceable(16) %5)
  call void @_ZN3tbb6detail2r117thread_dispatcher15register_clientEPNS1_24thread_dispatcher_clientE(ptr noundef nonnull align 8 dereferenceable(152) %19, ptr noundef %20)
  ret void
}