; Function Attrs: mustprogress sspstrong uwtable
define void @_ZN3tbb6detail2r122threading_control_impl14publish_clientENS1_24threading_control_clientERNS0_2d111constraintsE(ptr noundef nonnull readonly align 8 captures(none) dereferenceable(40) %0, ptr %1, ptr %2, ptr noundef nonnull align 4 dereferenceable(16) %3) local_unnamed_addr #0 align 2 {
  %5 = load ptr, ptr %0, align 8, !tbaa !47
  %6 = load ptr, ptr %5, align 8, !tbaa !14
  %7 = getelementptr inbounds nuw i8, ptr %6, i64 24
  %8 = load ptr, ptr %7, align 8
  tail call void %8(ptr noundef nonnull align 8 dereferenceable(16) %5, ptr noundef %1, ptr noundef nonnull align 4 dereferenceable(16) %3)
  %9 = getelementptr inbounds nuw i8, ptr %0, i64 8
  %10 = load ptr, ptr %9, align 8, !tbaa !25
  tail call void @_ZN3tbb6detail2r117thread_dispatcher15register_clientEPNS1_24thread_dispatcher_clientE(ptr noundef nonnull align 8 dereferenceable(152) %10, ptr noundef %2)
  ret void
}